target datalayout = "e-m:e-p270:32:32-p271:32:32-p272:64:64-i64:64-i128:128-f80:128-n8:16:32:64-S128"
target triple = "x86_64-pc-linux-gnu"

%class.IdealLoopTree = type <{ ptr, ptr, ptr, ptr, ptr, ptr, i32, i32, %class.Node_List, i16, i8, [5 x i8], ptr, ptr, i8, [7 x i8] }>
%class.Node_List = type <{ %class.Node_Array, i32, [4 x i8] }>
%class.Node_Array = type { ptr, i32, ptr }
%class.Node = type <{ ptr, ptr, ptr, i32, i32, i32, i32, i32, i32, i32, [4 x i8] }>
%class.PhaseIdealLoop = type <{ %class.PhaseTransform, %class.Node_List, ptr, ptr, ptr, i32, [4 x i8], ptr, i8, [7 x i8], %class.Node_List, %class.Node_List, %class.GrowableArray, i32, i32, ptr, ptr, ptr, i32, i8, [3 x i8], i32, i8, [3 x i8] }>
%class.PhaseTransform = type { ptr, %class.Phase }
%class.Phase = type { i32, ptr }
%class.GrowableArray = type { %class.GrowableArrayWithAllocator, %class.GrowableArrayMetadata }
%class.GrowableArrayWithAllocator = type { %class.GrowableArrayView }
%class.GrowableArrayView = type { %class.GrowableArrayBase, ptr }
%class.GrowableArrayBase = type { i32, i32 }
%class.GrowableArrayMetadata = type { i64 }

@g_assert_poison = external global ptr, align 8
@.str.26 = private unnamed_addr constant [36 x i8] c"src/hotspot/share/opto/loopnode.hpp\00", align 1
@.str.27 = private unnamed_addr constant [31 x i8] c"guarantee(n != nullptr) failed\00", align 1
@.str.28 = private unnamed_addr constant [9 x i8] c"No Node.\00", align 1

; Function Attrs: mustprogress nounwind uwtable
define linkonce_odr hidden noundef ptr @_ZNK10Node_ArrayixEj(ptr noundef nonnull align 8 dereferenceable(24) %0, i32 noundef %1) #1 comdat align 2 {
  %3 = alloca ptr, align 8
  %4 = alloca i32, align 4
  store ptr %0, ptr %3, align 8
  store i32 %1, ptr %4, align 4
  %5 = load ptr, ptr %3, align 8
  %6 = load i32, ptr %4, align 4
  %7 = getelementptr inbounds %class.Node_Array, ptr %5, i32 0, i32 1
  %8 = load i32, ptr %7, align 8
  %9 = icmp ult i32 %6, %8
  br i1 %9, label %10, label %17

10:                                               ; preds = %2
  %11 = getelementptr inbounds %class.Node_Array, ptr %5, i32 0, i32 2
  %12 = load ptr, ptr %11, align 8
  %13 = load i32, ptr %4, align 4
  %14 = zext i32 %13 to i64
  %15 = getelementptr inbounds ptr, ptr %12, i64 %14
  %16 = load ptr, ptr %15, align 8
  br label %18

17:                                               ; preds = %2
  br label %18

18:                                               ; preds = %17, %10
  %19 = phi ptr [ %16, %10 ], [ null, %17 ]
  ret ptr %19
}

; Function Attrs: mustprogress nounwind uwtable
define linkonce_odr hidden noundef zeroext i1 @_ZNK14PhaseIdealLoop8has_nodeEPK4Node(ptr noundef nonnull align 8 dereferenceable(237) %0, ptr noundef %1) #1 comdat align 2 {
  %3 = alloca ptr, align 8
  %4 = alloca ptr, align 8
  store ptr %0, ptr %3, align 8
  store ptr %1, ptr %4, align 8
  %5 = load ptr, ptr %3, align 8
  br label %6

6:                                                ; preds = %2
  %7 = load ptr, ptr %4, align 8
  %8 = icmp ne ptr %7, null
  br i1 %8, label %11, label %9

9:                                                ; preds = %6
  %10 = load ptr, ptr @g_assert_poison, align 8
  store i8 88, ptr %10, align 1
  call void (ptr, i32, ptr, ptr, ...) @_Z15report_vm_errorPKciS0_S0_z(ptr noundef @.str.26, i32 noundef 976, ptr noundef @.str.27, ptr noundef @.str.28) #9
  unreachable

11:                                               ; preds = %6
  br label %12

12:                                               ; preds = %11
  %13 = getelementptr inbounds %class.PhaseIdealLoop, ptr %5, i32 0, i32 1
  %14 = load ptr, ptr %4, align 8
  %15 = getelementptr inbounds %class.Node, ptr %14, i32 0, i32 7
  %16 = load i32, ptr %15, align 8
  %17 = call noundef ptr @_ZNK10Node_ArrayixEj(ptr noundef nonnull align 8 dereferenceable(24) %13, i32 noundef %16)
  %18 = icmp ne ptr %17, null
  ret i1 %18
}

; Function Attrs: mustprogress nounwind uwtable
define linkonce_odr hidden noundef ptr @_ZNK14PhaseIdealLoop8get_loopEP4Node(ptr noundef nonnull align 8 dereferenceable(237) %0, ptr noundef %1) #1 comdat align 2 {
  %3 = alloca ptr, align 8
  %4 = alloca ptr, align 8
  %5 = alloca ptr, align 8
  store ptr %0, ptr %4, align 8
  store ptr %1, ptr %5, align 8
  %6 = load ptr, ptr %4, align 8
  %7 = load ptr, ptr %5, align 8
  %8 = call noundef zeroext i1 @_ZNK14PhaseIdealLoop8has_nodeEPK4Node(ptr noundef nonnull align 8 dereferenceable(237) %6, ptr noundef %7)
  br i1 %8, label %12, label %9

9:                                                ; preds = %2
  %10 = getelementptr inbounds %class.PhaseIdealLoop, ptr %6, i32 0, i32 3
  %11 = load ptr, ptr %10, align 8
  store ptr %11, ptr %3, align 8
  br label %18

12:                                               ; preds = %2
  %13 = getelementptr inbounds %class.PhaseIdealLoop, ptr %6, i32 0, i32 1
  %14 = load ptr, ptr %5, align 8
  %15 = getelementptr inbounds %class.Node, ptr %14, i32 0, i32 7
  %16 = load i32, ptr %15, align 8
  %17 = call noundef ptr @_ZNK10Node_ArrayixEj(ptr noundef nonnull align 8 dereferenceable(24) %13, i32 noundef %16)
  store ptr %17, ptr %3, align 8
  br label %18

18:                                               ; preds = %12, %9
  %19 = load ptr, ptr %3, align 8
  ret ptr %19
}

; Function Attrs: mustprogress nounwind uwtable
define linkonce_odr hidden noundef ptr @_ZNK4Node7raw_outEj(ptr noundef nonnull align 8 dereferenceable(52) %0, i32 noundef %1) #1 comdat align 2 {
  %3 = alloca ptr, align 8
  %4 = alloca i32, align 4
  store ptr %0, ptr %3, align 8
  store i32 %1, ptr %4, align 4
  %5 = load ptr, ptr %3, align 8
  %6 = getelementptr inbounds %class.Node, ptr %5, i32 0, i32 2
  %7 = load ptr, ptr %6, align 8
  %8 = load i32, ptr %4, align 4
  %9 = zext i32 %8 to i64
  %10 = getelementptr inbounds ptr, ptr %7, i64 %9
  %11 = load ptr, ptr %10, align 8
  ret ptr %11
}

; Function Attrs: mustprogress nounwind uwtable
define linkonce_odr hidden noundef i32 @_ZNK4Node6outcntEv(ptr noundef nonnull align 8 dereferenceable(52) %0) #1 comdat align 2 {
  %2 = alloca ptr, align 8
  store ptr %0, ptr %2, align 8
  %3 = load ptr, ptr %2, align 8
  %4 = getelementptr inbounds %class.Node, ptr %3, i32 0, i32 5
  %5 = load i32, ptr %4, align 8
  ret i32 %5
}

; Function Attrs: mustprogress nounwind uwtable
define hidden noundef ptr @_ZNK13IdealLoopTree12is_loop_exitEP4Node(ptr noundef nonnull align 8 dereferenceable(113) %0, ptr noundef %1) #1 align 2 {
  %3 = alloca ptr, align 8
  %4 = alloca ptr, align 8
  %5 = alloca ptr, align 8
  %6 = alloca ptr, align 8
  store ptr %0, ptr %4, align 8
  store ptr %1, ptr %5, align 8
  %7 = load ptr, ptr %4, align 8
  %8 = load ptr, ptr %5, align 8
  %9 = call noundef i32 @_ZNK4Node6outcntEv(ptr noundef nonnull align 8 dereferenceable(52) %8)
  %10 = icmp ne i32 %9, 2
  br i1 %10, label %11, label %12

11:                                               ; preds = %2
  store ptr null, ptr %3, align 8
  br label %33

12:                                               ; preds = %2
  %13 = getelementptr inbounds %class.IdealLoopTree, ptr %7, i32 0, i32 5
  %14 = load ptr, ptr %13, align 8
  store ptr %14, ptr %6, align 8
  %15 = load ptr, ptr %6, align 8
  %16 = load ptr, ptr %5, align 8
  %17 = call noundef ptr @_ZNK4Node7raw_outEj(ptr noundef nonnull align 8 dereferenceable(52) %16, i32 noundef 0)
  %18 = call noundef ptr @_ZNK14PhaseIdealLoop8get_loopEP4Node(ptr noundef nonnull align 8 dereferenceable(237) %15, ptr noundef %17)
  %19 = call noundef zeroext i1 @_ZNK13IdealLoopTree9is_memberEPKS_(ptr noundef nonnull align 8 dereferenceable(113) %7, ptr noundef %18)
  br i1 %19, label %23, label %20

20:                                               ; preds = %12
  %21 = load ptr, ptr %5, align 8
  %22 = call noundef ptr @_ZNK4Node7raw_outEj(ptr noundef nonnull align 8 dereferenceable(52) %21, i32 noundef 0)
  store ptr %22, ptr %3, align 8
  br label %33

23:                                               ; preds = %12
  %24 = load ptr, ptr %6, align 8
  %25 = load ptr, ptr %5, align 8
  %26 = call noundef ptr @_ZNK4Node7raw_outEj(ptr noundef nonnull align 8 dereferenceable(52) %25, i32 noundef 1)
  %27 = call noundef ptr @_ZNK14PhaseIdealLoop8get_loopEP4Node(ptr noundef nonnull align 8 dereferenceable(237) %24, ptr noundef %26)
  %28 = call noundef zeroext i1 @_ZNK13IdealLoopTree9is_memberEPKS_(ptr noundef nonnull align 8 dereferenceable(113) %7, ptr noundef %27)
  br i1 %28, label %32, label %29

29:                                               ; preds = %23
  %30 = load ptr, ptr %5, align 8
  %31 = call noundef ptr @_ZNK4Node7raw_outEj(ptr noundef nonnull align 8 dereferenceable(52) %30, i32 noundef 1)
  store ptr %31, ptr %3, align 8
  br label %33

32:                                               ; preds = %23
  store ptr null, ptr %3, align 8
  br label %33

33:                                               ; preds = %32, %29, %20, %11
  %34 = load ptr, ptr %3, align 8
  ret ptr %34
}