; Function Attrs: mustprogress nounwind uwtable
define hidden noundef ptr @_ZNK13IdealLoopTree12is_loop_exitEP4Node(ptr noundef nonnull align 8 dereferenceable(113) %0, ptr nocapture noundef readonly %1) local_unnamed_addr #0 align 2 {
  %3 = getelementptr inbounds i8, ptr %1, i64 32
  %4 = load i32, ptr %3, align 8
  %.not = icmp eq i32 %4, 2
  br i1 %.not, label %5, label %50

5:                                                ; preds = %2
  %6 = getelementptr inbounds i8, ptr %0, i64 40
  %7 = load ptr, ptr %6, align 8
  %8 = getelementptr inbounds i8, ptr %1, i64 16
  %9 = load ptr, ptr %8, align 8
  %10 = load ptr, ptr %9, align 8
  %.not.i.i = icmp eq ptr %10, null
  br i1 %.not.i.i, label %11, label %13

11:                                               ; preds = %5
  %12 = load ptr, ptr @g_assert_poison, align 8
  store i8 88, ptr %12, align 1
  tail call void (ptr, i32, ptr, ptr, ...) @_Z15report_vm_errorPKciS0_S0_z(ptr noundef nonnull @.str.26, i32 noundef 976, ptr noundef nonnull @.str.27, ptr noundef nonnull @.str.28) #10
  unreachable

13:                                               ; preds = %5
  %14 = getelementptr inbounds i8, ptr %10, i64 40
  %15 = load i32, ptr %14, align 8
  %16 = getelementptr inbounds i8, ptr %7, i64 32
  %17 = load i32, ptr %16, align 8
  %18 = icmp ugt i32 %17, %15
  br i1 %18, label %_ZNK14PhaseIdealLoop8has_nodeEPK4Node.exit.i, label %_ZNK14PhaseIdealLoop8has_nodeEPK4Node.exit.thread.i

_ZNK14PhaseIdealLoop8has_nodeEPK4Node.exit.i:     ; preds = %13
  %19 = getelementptr inbounds i8, ptr %7, i64 40
  %20 = load ptr, ptr %19, align 8
  %21 = zext i32 %15 to i64
  %22 = getelementptr inbounds ptr, ptr %20, i64 %21
  %23 = load ptr, ptr %22, align 8
  %.not.i = icmp eq ptr %23, null
  br i1 %.not.i, label %_ZNK14PhaseIdealLoop8has_nodeEPK4Node.exit.thread.i, label %_ZNK14PhaseIdealLoop8get_loopEP4Node.exit

_ZNK14PhaseIdealLoop8has_nodeEPK4Node.exit.thread.i: ; preds = %_ZNK14PhaseIdealLoop8has_nodeEPK4Node.exit.i, %13
  %24 = getelementptr inbounds i8, ptr %7, i64 64
  %25 = load ptr, ptr %24, align 8
  br label %_ZNK14PhaseIdealLoop8get_loopEP4Node.exit

_ZNK14PhaseIdealLoop8get_loopEP4Node.exit:        ; preds = %_ZNK14PhaseIdealLoop8has_nodeEPK4Node.exit.i, %_ZNK14PhaseIdealLoop8has_nodeEPK4Node.exit.thread.i
  %.0.i = phi ptr [ %25, %_ZNK14PhaseIdealLoop8has_nodeEPK4Node.exit.thread.i ], [ %23, %_ZNK14PhaseIdealLoop8has_nodeEPK4Node.exit.i ]
  %26 = tail call noundef zeroext i1 @_ZNK13IdealLoopTree9is_memberEPKS_(ptr noundef nonnull align 8 dereferenceable(113) %0, ptr noundef %.0.i) #11
  %27 = load ptr, ptr %8, align 8
  br i1 %26, label %28, label %.sink.split

28:                                               ; preds = %_ZNK14PhaseIdealLoop8get_loopEP4Node.exit
  %29 = getelementptr inbounds i8, ptr %27, i64 8
  %30 = load ptr, ptr %29, align 8
  %.not.i.i9 = icmp eq ptr %30, null
  br i1 %.not.i.i9, label %31, label %33

31:                                               ; preds = %28
  %32 = load ptr, ptr @g_assert_poison, align 8
  store i8 88, ptr %32, align 1
  tail call void (ptr, i32, ptr, ptr, ...) @_Z15report_vm_errorPKciS0_S0_z(ptr noundef nonnull @.str.26, i32 noundef 976, ptr noundef nonnull @.str.27, ptr noundef nonnull @.str.28) #10
  unreachable

33:                                               ; preds = %28
  %34 = getelementptr inbounds i8, ptr %30, i64 40
  %35 = load i32, ptr %34, align 8
  %36 = load i32, ptr %16, align 8
  %37 = icmp ugt i32 %36, %35
  br i1 %37, label %_ZNK14PhaseIdealLoop8has_nodeEPK4Node.exit.i12, label %_ZNK14PhaseIdealLoop8has_nodeEPK4Node.exit.thread.i10

_ZNK14PhaseIdealLoop8has_nodeEPK4Node.exit.i12:   ; preds = %33
  %38 = getelementptr inbounds i8, ptr %7, i64 40
  %39 = load ptr, ptr %38, align 8
  %40 = zext i32 %35 to i64
  %41 = getelementptr inbounds ptr, ptr %39, i64 %40
  %42 = load ptr, ptr %41, align 8
  %.not.i13 = icmp eq ptr %42, null
  br i1 %.not.i13, label %_ZNK14PhaseIdealLoop8has_nodeEPK4Node.exit.thread.i10, label %_ZNK14PhaseIdealLoop8get_loopEP4Node.exit14

_ZNK14PhaseIdealLoop8has_nodeEPK4Node.exit.thread.i10: ; preds = %_ZNK14PhaseIdealLoop8has_nodeEPK4Node.exit.i12, %33
  %43 = getelementptr inbounds i8, ptr %7, i64 64
  %44 = load ptr, ptr %43, align 8
  br label %_ZNK14PhaseIdealLoop8get_loopEP4Node.exit14

_ZNK14PhaseIdealLoop8get_loopEP4Node.exit14:      ; preds = %_ZNK14PhaseIdealLoop8has_nodeEPK4Node.exit.i12, %_ZNK14PhaseIdealLoop8has_nodeEPK4Node.exit.thread.i10
  %.0.i11 = phi ptr [ %44, %_ZNK14PhaseIdealLoop8has_nodeEPK4Node.exit.thread.i10 ], [ %42, %_ZNK14PhaseIdealLoop8has_nodeEPK4Node.exit.i12 ]
  %45 = tail call noundef zeroext i1 @_ZNK13IdealLoopTree9is_memberEPKS_(ptr noundef nonnull align 8 dereferenceable(113) %0, ptr noundef %.0.i11) #11
  br i1 %45, label %50, label %46

46:                                               ; preds = %_ZNK14PhaseIdealLoop8get_loopEP4Node.exit14
  %47 = load ptr, ptr %8, align 8
  %48 = getelementptr inbounds i8, ptr %47, i64 8
  br label %.sink.split

.sink.split:                                      ; preds = %_ZNK14PhaseIdealLoop8get_loopEP4Node.exit, %46
  %.sink = phi ptr [ %48, %46 ], [ %27, %_ZNK14PhaseIdealLoop8get_loopEP4Node.exit ]
  %49 = load ptr, ptr %.sink, align 8
  br label %50

50:                                               ; preds = %.sink.split, %_ZNK14PhaseIdealLoop8get_loopEP4Node.exit14, %2
  %.0 = phi ptr [ null, %2 ], [ null, %_ZNK14PhaseIdealLoop8get_loopEP4Node.exit14 ], [ %49, %.sink.split ]
  ret ptr %.0
}